target datalayout = "e-m:e-p270:32:32-p271:32:32-p272:64:64-i64:64-i128:128-f80:128-n8:16:32:64-S128"
target triple = "x86_64-unknown-linux-gnu"

%struct.aiString = type { i32, [1024 x i8] }
%struct.aiColor3D = type { float, float, float }
%"struct.Assimp::MDL::HalfLife::Texture_HL1" = type { [64 x i8], i32, i32, i32, i32 }
%struct.aiTexture = type <{ i32, i32, [9 x i8], [7 x i8], ptr, %struct.aiString, [4 x i8] }>
%struct.aiTexel = type { i8, i8, i8, i8 }

; Function Attrs: mustprogress nounwind uwtable
define linkonce_odr hidden void @_ZN8aiString3SetEPKc(ptr noundef nonnull align 4 dereferenceable(1028) %this, ptr noundef %sz) #0 comdat align 2 {
entry:
  %this.addr = alloca ptr, align 8
  %sz.addr = alloca ptr, align 8
  %len = alloca i32, align 4
  store ptr %this, ptr %this.addr, align 8
  store ptr %sz, ptr %sz.addr, align 8
  %this1 = load ptr, ptr %this.addr, align 8
  %0 = load ptr, ptr %sz.addr, align 8
  %call = call i64 @strlen(ptr noundef %0) #19
  %conv = trunc i64 %call to i32
  store i32 %conv, ptr %len, align 4
  %1 = load i32, ptr %len, align 4
  %cmp = icmp sgt i32 %1, 1023
  br i1 %cmp, label %if.then, label %if.end

if.then:                                          ; preds = %entry
  store i32 1023, ptr %len, align 4
  br label %if.end

if.end:                                           ; preds = %if.then, %entry
  %2 = load i32, ptr %len, align 4
  %length = getelementptr inbounds %struct.aiString, ptr %this1, i32 0, i32 0
  store i32 %2, ptr %length, align 4
  %data = getelementptr inbounds %struct.aiString, ptr %this1, i32 0, i32 1
  %arraydecay = getelementptr inbounds [1024 x i8], ptr %data, i64 0, i64 0
  %3 = load ptr, ptr %sz.addr, align 8
  %4 = load i32, ptr %len, align 4
  %conv2 = sext i32 %4 to i64
  call void @llvm.memcpy.p0.p0.i64(ptr align 4 %arraydecay, ptr align 1 %3, i64 %conv2, i1 false)
  %data3 = getelementptr inbounds %struct.aiString, ptr %this1, i32 0, i32 1
  %5 = load i32, ptr %len, align 4
  %idxprom = sext i32 %5 to i64
  %arrayidx = getelementptr inbounds [1024 x i8], ptr %data3, i64 0, i64 %idxprom
  store i8 0, ptr %arrayidx, align 1
  ret void
}

; Function Attrs: mustprogress uwtable
define linkonce_odr hidden noundef nonnull align 4 dereferenceable(1028) ptr @_ZN8aiStringaSEPKc(ptr noundef nonnull align 4 dereferenceable(1028) %this, ptr noundef %sz) #2 comdat align 2 {
entry:
  %this.addr = alloca ptr, align 8
  %sz.addr = alloca ptr, align 8
  store ptr %this, ptr %this.addr, align 8
  store ptr %sz, ptr %sz.addr, align 8
  %this1 = load ptr, ptr %this.addr, align 8
  %0 = load ptr, ptr %sz.addr, align 8
  call void @_ZN8aiString3SetEPKc(ptr noundef nonnull align 4 dereferenceable(1028) %this1, ptr noundef %0)
  ret ptr %this1
}

; Function Attrs: mustprogress uwtable
define hidden void @_ZN6Assimp3MDL8HalfLife12HL1MDLLoader12read_textureEPKNS1_11Texture_HL1EPhS6_P9aiTextureR9aiColor3D(ptr noundef nonnull align 8 dereferenceable(256) %this, ptr noundef %ptexture, ptr noundef %data, ptr noundef %pal, ptr noundef %pResult, ptr noundef nonnull align 4 dereferenceable(12) %last_palette_color) #2 align 2 {
entry:
  %this.addr = alloca ptr, align 8
  %ptexture.addr = alloca ptr, align 8
  %data.addr = alloca ptr, align 8
  %pal.addr = alloca ptr, align 8
  %pResult.addr = alloca ptr, align 8
  %last_palette_color.addr = alloca ptr, align 8
  %num_pixels = alloca i64, align 8
  %out = alloca ptr, align 8
  %i = alloca i64, align 8
  store ptr %this, ptr %this.addr, align 8
  store ptr %ptexture, ptr %ptexture.addr, align 8
  store ptr %data, ptr %data.addr, align 8
  store ptr %pal, ptr %pal.addr, align 8
  store ptr %pResult, ptr %pResult.addr, align 8
  store ptr %last_palette_color, ptr %last_palette_color.addr, align 8
  %0 = load ptr, ptr %ptexture.addr, align 8
  %name = getelementptr inbounds %"struct.Assimp::MDL::HalfLife::Texture_HL1", ptr %0, i32 0, i32 0
  %arraydecay = getelementptr inbounds [64 x i8], ptr %name, i64 0, i64 0
  %1 = load ptr, ptr %pResult.addr, align 8
  %mFilename = getelementptr inbounds %struct.aiTexture, ptr %1, i32 0, i32 5
  %call = call noundef nonnull align 4 dereferenceable(1028) ptr @_ZN8aiStringaSEPKc(ptr noundef nonnull align 4 dereferenceable(1028) %mFilename, ptr noundef %arraydecay)
  %2 = load ptr, ptr %ptexture.addr, align 8
  %width = getelementptr inbounds %"struct.Assimp::MDL::HalfLife::Texture_HL1", ptr %2, i32 0, i32 2
  %3 = load i32, ptr %width, align 1
  %4 = load ptr, ptr %pResult.addr, align 8
  %mWidth = getelementptr inbounds %struct.aiTexture, ptr %4, i32 0, i32 0
  store i32 %3, ptr %mWidth, align 8
  %5 = load ptr, ptr %ptexture.addr, align 8
  %height = getelementptr inbounds %"struct.Assimp::MDL::HalfLife::Texture_HL1", ptr %5, i32 0, i32 3
  %6 = load i32, ptr %height, align 1
  %7 = load ptr, ptr %pResult.addr, align 8
  %mHeight = getelementptr inbounds %struct.aiTexture, ptr %7, i32 0, i32 1
  store i32 %6, ptr %mHeight, align 4
  %8 = load ptr, ptr %pResult.addr, align 8
  %achFormatHint = getelementptr inbounds %struct.aiTexture, ptr %8, i32 0, i32 2
  %arrayidx = getelementptr inbounds [9 x i8], ptr %achFormatHint, i64 0, i64 0
  store i8 114, ptr %arrayidx, align 8
  %9 = load ptr, ptr %pResult.addr, align 8
  %achFormatHint2 = getelementptr inbounds %struct.aiTexture, ptr %9, i32 0, i32 2
  %arrayidx3 = getelementptr inbounds [9 x i8], ptr %achFormatHint2, i64 0, i64 1
  store i8 103, ptr %arrayidx3, align 1
  %10 = load ptr, ptr %pResult.addr, align 8
  %achFormatHint4 = getelementptr inbounds %struct.aiTexture, ptr %10, i32 0, i32 2
  %arrayidx5 = getelementptr inbounds [9 x i8], ptr %achFormatHint4, i64 0, i64 2
  store i8 98, ptr %arrayidx5, align 2
  %11 = load ptr, ptr %pResult.addr, align 8
  %achFormatHint6 = getelementptr inbounds %struct.aiTexture, ptr %11, i32 0, i32 2
  %arrayidx7 = getelementptr inbounds [9 x i8], ptr %achFormatHint6, i64 0, i64 3
  store i8 97, ptr %arrayidx7, align 1
  %12 = load ptr, ptr %pResult.addr, align 8
  %achFormatHint8 = getelementptr inbounds %struct.aiTexture, ptr %12, i32 0, i32 2
  %arrayidx9 = getelementptr inbounds [9 x i8], ptr %achFormatHint8, i64 0, i64 4
  store i8 56, ptr %arrayidx9, align 4
  %13 = load ptr, ptr %pResult.addr, align 8
  %achFormatHint10 = getelementptr inbounds %struct.aiTexture, ptr %13, i32 0, i32 2
  %arrayidx11 = getelementptr inbounds [9 x i8], ptr %achFormatHint10, i64 0, i64 5
  store i8 56, ptr %arrayidx11, align 1
  %14 = load ptr, ptr %pResult.addr, align 8
  %achFormatHint12 = getelementptr inbounds %struct.aiTexture, ptr %14, i32 0, i32 2
  %arrayidx13 = getelementptr inbounds [9 x i8], ptr %achFormatHint12, i64 0, i64 6
  store i8 56, ptr %arrayidx13, align 2
  %15 = load ptr, ptr %pResult.addr, align 8
  %achFormatHint14 = getelementptr inbounds %struct.aiTexture, ptr %15, i32 0, i32 2
  %arrayidx15 = getelementptr inbounds [9 x i8], ptr %achFormatHint14, i64 0, i64 7
  store i8 56, ptr %arrayidx15, align 1
  %16 = load ptr, ptr %pResult.addr, align 8
  %achFormatHint16 = getelementptr inbounds %struct.aiTexture, ptr %16, i32 0, i32 2
  %arrayidx17 = getelementptr inbounds [9 x i8], ptr %achFormatHint16, i64 0, i64 8
  store i8 0, ptr %arrayidx17, align 8
  %17 = load ptr, ptr %pResult.addr, align 8
  %mWidth18 = getelementptr inbounds %struct.aiTexture, ptr %17, i32 0, i32 0
  %18 = load i32, ptr %mWidth18, align 8
  %19 = load ptr, ptr %pResult.addr, align 8
  %mHeight19 = getelementptr inbounds %struct.aiTexture, ptr %19, i32 0, i32 1
  %20 = load i32, ptr %mHeight19, align 4
  %mul = mul i32 %18, %20
  %conv = zext i32 %mul to i64
  store i64 %conv, ptr %num_pixels, align 8
  %21 = load i64, ptr %num_pixels, align 8
  %22 = call { i64, i1 } @llvm.umul.with.overflow.i64(i64 %21, i64 4)
  %23 = extractvalue { i64, i1 } %22, 1
  %24 = extractvalue { i64, i1 } %22, 0
  %25 = select i1 %23, i64 -1, i64 %24
  %call20 = call noalias noundef nonnull ptr @_Znam(i64 noundef %25) #16
  %26 = load ptr, ptr %pResult.addr, align 8
  %pcData = getelementptr inbounds %struct.aiTexture, ptr %26, i32 0, i32 4
  store ptr %call20, ptr %pcData, align 8
  store ptr %call20, ptr %out, align 8
  store i64 0, ptr %i, align 8
  br label %for.cond

for.cond:                                         ; preds = %for.inc, %entry
  %27 = load i64, ptr %i, align 8
  %28 = load i64, ptr %num_pixels, align 8
  %cmp = icmp ult i64 %27, %28
  br i1 %cmp, label %for.body, label %for.end

for.body:                                         ; preds = %for.cond
  %29 = load ptr, ptr %pal.addr, align 8
  %30 = load ptr, ptr %data.addr, align 8
  %31 = load i64, ptr %i, align 8
  %arrayidx21 = getelementptr inbounds i8, ptr %30, i64 %31
  %32 = load i8, ptr %arrayidx21, align 1
  %conv22 = zext i8 %32 to i32
  %mul23 = mul nsw i32 %conv22, 3
  %idxprom = sext i32 %mul23 to i64
  %arrayidx24 = getelementptr inbounds i8, ptr %29, i64 %idxprom
  %33 = load i8, ptr %arrayidx24, align 1
  %34 = load ptr, ptr %out, align 8
  %r = getelementptr inbounds %struct.aiTexel, ptr %34, i32 0, i32 2
  store i8 %33, ptr %r, align 1
  %35 = load ptr, ptr %pal.addr, align 8
  %36 = load ptr, ptr %data.addr, align 8
  %37 = load i64, ptr %i, align 8
  %arrayidx25 = getelementptr inbounds i8, ptr %36, i64 %37
  %38 = load i8, ptr %arrayidx25, align 1
  %conv26 = zext i8 %38 to i32
  %mul27 = mul nsw i32 %conv26, 3
  %add = add nsw i32 %mul27, 1
  %idxprom28 = sext i32 %add to i64
  %arrayidx29 = getelementptr inbounds i8, ptr %35, i64 %idxprom28
  %39 = load i8, ptr %arrayidx29, align 1
  %40 = load ptr, ptr %out, align 8
  %g = getelementptr inbounds %struct.aiTexel, ptr %40, i32 0, i32 1
  store i8 %39, ptr %g, align 1
  %41 = load ptr, ptr %pal.addr, align 8
  %42 = load ptr, ptr %data.addr, align 8
  %43 = load i64, ptr %i, align 8
  %arrayidx30 = getelementptr inbounds i8, ptr %42, i64 %43
  %44 = load i8, ptr %arrayidx30, align 1
  %conv31 = zext i8 %44 to i32
  %mul32 = mul nsw i32 %conv31, 3
  %add33 = add nsw i32 %mul32, 2
  %idxprom34 = sext i32 %add33 to i64
  %arrayidx35 = getelementptr inbounds i8, ptr %41, i64 %idxprom34
  %45 = load i8, ptr %arrayidx35, align 1
  %46 = load ptr, ptr %out, align 8
  %b = getelementptr inbounds %struct.aiTexel, ptr %46, i32 0, i32 0
  store i8 %45, ptr %b, align 1
  %47 = load ptr, ptr %out, align 8
  %a = getelementptr inbounds %struct.aiTexel, ptr %47, i32 0, i32 3
  store i8 -1, ptr %a, align 1
  br label %for.inc

for.inc:                                          ; preds = %for.body
  %48 = load i64, ptr %i, align 8
  %inc = add i64 %48, 1
  store i64 %inc, ptr %i, align 8
  %49 = load ptr, ptr %out, align 8
  %incdec.ptr = getelementptr inbounds %struct.aiTexel, ptr %49, i32 1
  store ptr %incdec.ptr, ptr %out, align 8
  br label %for.cond, !llvm.loop !49

for.end:                                          ; preds = %for.cond
  %50 = load ptr, ptr %pal.addr, align 8
  %arrayidx36 = getelementptr inbounds i8, ptr %50, i64 765
  %51 = load i8, ptr %arrayidx36, align 1
  %conv37 = uitofp i8 %51 to float
  %52 = load ptr, ptr %last_palette_color.addr, align 8
  %r38 = getelementptr inbounds %struct.aiColor3D, ptr %52, i32 0, i32 0
  store float %conv37, ptr %r38, align 4
  %53 = load ptr, ptr %pal.addr, align 8
  %arrayidx39 = getelementptr inbounds i8, ptr %53, i64 766
  %54 = load i8, ptr %arrayidx39, align 1
  %conv40 = uitofp i8 %54 to float
  %55 = load ptr, ptr %last_palette_color.addr, align 8
  %g41 = getelementptr inbounds %struct.aiColor3D, ptr %55, i32 0, i32 1
  store float %conv40, ptr %g41, align 4
  %56 = load ptr, ptr %pal.addr, align 8
  %arrayidx42 = getelementptr inbounds i8, ptr %56, i64 767
  %57 = load i8, ptr %arrayidx42, align 1
  %conv43 = uitofp i8 %57 to float
  %58 = load ptr, ptr %last_palette_color.addr, align 8
  %b44 = getelementptr inbounds %struct.aiColor3D, ptr %58, i32 0, i32 2
  store float %conv43, ptr %b44, align 4
  ret void
}