; Function Attrs: mustprogress uwtable
define hidden void @_ZN6Assimp3MDL8HalfLife12HL1MDLLoader12read_textureEPKNS1_11Texture_HL1EPhS6_P9aiTextureR9aiColor3D(ptr nocapture noundef nonnull readnone align 8 dereferenceable(256) %this, ptr nocapture noundef readonly %ptexture, ptr nocapture noundef readonly %data, ptr nocapture noundef readonly %pal, ptr nocapture noundef writeonly %pResult, ptr nocapture noundef nonnull writeonly align 4 dereferenceable(12) %last_palette_color) local_unnamed_addr #1 align 2 {
entry:
  %mFilename = getelementptr inbounds i8, ptr %pResult, i64 32
  %call.i.i = tail call i64 @strlen(ptr noundef nonnull dereferenceable(1) %ptexture) #25
  %conv.i.i = trunc i64 %call.i.i to i32
  %spec.store.select.i.i = tail call i32 @llvm.smin.i32(i32 %conv.i.i, i32 1023)
  store i32 %spec.store.select.i.i, ptr %mFilename, align 4
  %data.i.i = getelementptr inbounds i8, ptr %pResult, i64 36
  %conv2.i.i = sext i32 %spec.store.select.i.i to i64
  tail call void @llvm.memcpy.p0.p0.i64(ptr nonnull align 4 %data.i.i, ptr align 1 %ptexture, i64 %conv2.i.i, i1 false)
  %arrayidx.i.i = getelementptr inbounds [1024 x i8], ptr %data.i.i, i64 0, i64 %conv2.i.i
  store i8 0, ptr %arrayidx.i.i, align 1
  %width = getelementptr inbounds i8, ptr %ptexture, i64 68
  %0 = load i32, ptr %width, align 1
  store i32 %0, ptr %pResult, align 8
  %height = getelementptr inbounds i8, ptr %ptexture, i64 72
  %1 = load i32, ptr %height, align 1
  %mHeight = getelementptr inbounds i8, ptr %pResult, i64 4
  store i32 %1, ptr %mHeight, align 4
  %achFormatHint = getelementptr inbounds i8, ptr %pResult, i64 8
  store <4 x i8> <i8 114, i8 103, i8 98, i8 97>, ptr %achFormatHint, align 8
  %arrayidx9 = getelementptr inbounds i8, ptr %pResult, i64 12
  %arrayidx17 = getelementptr inbounds i8, ptr %pResult, i64 16
  store i32 943208504, ptr %arrayidx9, align 4
  store i8 0, ptr %arrayidx17, align 8
  %mul = mul i32 %1, %0
  %conv = zext i32 %mul to i64
  %2 = shl nuw nsw i64 %conv, 2
  %call20 = tail call noalias noundef nonnull ptr @_Znam(i64 noundef %2) #22
  %pcData = getelementptr inbounds i8, ptr %pResult, i64 24
  store ptr %call20, ptr %pcData, align 8
  %cmp35.not = icmp eq i32 %mul, 0
  br i1 %cmp35.not, label %for.end, label %for.body

for.body:                                         ; preds = %entry, %for.body
  %i.037 = phi i64 [ %inc, %for.body ], [ 0, %entry ]
  %out.036 = phi ptr [ %incdec.ptr, %for.body ], [ %call20, %entry ]
  %arrayidx21 = getelementptr inbounds i8, ptr %data, i64 %i.037
  %3 = load i8, ptr %arrayidx21, align 1
  %conv22 = zext i8 %3 to i64
  %mul23 = mul nuw nsw i64 %conv22, 3
  %arrayidx24 = getelementptr inbounds i8, ptr %pal, i64 %mul23
  %4 = load i8, ptr %arrayidx24, align 1
  %r = getelementptr inbounds i8, ptr %out.036, i64 2
  store i8 %4, ptr %r, align 1
  %arrayidx29 = getelementptr i8, ptr %arrayidx24, i64 1
  %5 = load i8, ptr %arrayidx29, align 1
  %g = getelementptr inbounds i8, ptr %out.036, i64 1
  store i8 %5, ptr %g, align 1
  %arrayidx35 = getelementptr i8, ptr %arrayidx24, i64 2
  %6 = load i8, ptr %arrayidx35, align 1
  store i8 %6, ptr %out.036, align 1
  %a = getelementptr inbounds i8, ptr %out.036, i64 3
  store i8 -1, ptr %a, align 1
  %inc = add nuw nsw i64 %i.037, 1
  %incdec.ptr = getelementptr inbounds i8, ptr %out.036, i64 4
  %exitcond.not = icmp eq i64 %inc, %conv
  br i1 %exitcond.not, label %for.end, label %for.body, !llvm.loop !41

for.end:                                          ; preds = %for.body, %entry
  %arrayidx36 = getelementptr inbounds i8, ptr %pal, i64 765
  %7 = load i8, ptr %arrayidx36, align 1
  %conv37 = uitofp i8 %7 to float
  store float %conv37, ptr %last_palette_color, align 4
  %arrayidx39 = getelementptr inbounds i8, ptr %pal, i64 766
  %8 = load i8, ptr %arrayidx39, align 1
  %conv40 = uitofp i8 %8 to float
  %g41 = getelementptr inbounds i8, ptr %last_palette_color, i64 4
  store float %conv40, ptr %g41, align 4
  %arrayidx42 = getelementptr inbounds i8, ptr %pal, i64 767
  %9 = load i8, ptr %arrayidx42, align 1
  %conv43 = uitofp i8 %9 to float
  %b44 = getelementptr inbounds i8, ptr %last_palette_color, i64 8
  store float %conv43, ptr %b44, align 4
  ret void
}